target datalayout = "e-m:e-p270:32:32-p271:32:32-p272:64:64-i64:64-i128:128-f80:128-n8:16:32:64-S128"
target triple = "x86_64-pc-linux-gnu"

%struct.addrinfo = type { i32, i32, i32, i32, i32, ptr, ptr, ptr }
%struct.rbimpl_size_mul_overflow_tag = type { i8, i64 }

@rb_eSocket = external global i64, align 8
@.str.107 = private unnamed_addr constant [15 x i8] c"host not found\00", align 1

; Function Attrs: inlinehint nounwind sspstrong willreturn memory(none) uwtable
define internal zeroext i1 @RB_FIXNUM_P(i64 noundef %0) #6 {
  %2 = alloca i64, align 8
  store i64 %0, ptr %2, align 8, !tbaa !31
  %3 = load i64, ptr %2, align 8, !tbaa !31
  %4 = and i64 %3, 1
  %5 = icmp ne i64 %4, 0
  ret i1 %5
}

; Function Attrs: inlinehint nounwind sspstrong willreturn memory(none) uwtable
define internal { i8, i64 } @rbimpl_size_mul_overflow(i64 noundef %0, i64 noundef %1) #6 {
  %3 = alloca %struct.rbimpl_size_mul_overflow_tag, align 8
  %4 = alloca i64, align 8
  %5 = alloca i64, align 8
  store i64 %0, ptr %4, align 8, !tbaa !31
  store i64 %1, ptr %5, align 8, !tbaa !31
  call void @llvm.memset.p0.i64(ptr align 8 %3, i8 0, i64 16, i1 false)
  %6 = load i64, ptr %4, align 8, !tbaa !31
  %7 = load i64, ptr %5, align 8, !tbaa !31
  %8 = getelementptr inbounds nuw %struct.rbimpl_size_mul_overflow_tag, ptr %3, i32 0, i32 1
  %9 = call { i64, i1 } @llvm.umul.with.overflow.i64(i64 %6, i64 %7)
  %10 = extractvalue { i64, i1 } %9, 1
  %11 = extractvalue { i64, i1 } %9, 0
  store i64 %11, ptr %8, align 8
  %12 = getelementptr inbounds nuw %struct.rbimpl_size_mul_overflow_tag, ptr %3, i32 0, i32 0
  %13 = zext i1 %10 to i8
  store i8 %13, ptr %12, align 8, !tbaa !98
  %14 = load { i8, i64 }, ptr %3, align 8
  ret { i8, i64 } %14
}

; Function Attrs: inlinehint nounwind sspstrong uwtable
define internal i32 @rb_num2int_inline(i64 noundef %0) #5 {
  %2 = alloca i64, align 8
  %3 = alloca i64, align 8
  store i64 %0, ptr %2, align 8, !tbaa !31
  call void @llvm.lifetime.start.p0(i64 8, ptr %3) #24
  %4 = load i64, ptr %2, align 8, !tbaa !31
  %5 = call zeroext i1 @RB_FIXNUM_P(i64 noundef %4) #28
  br i1 %5, label %6, label %9

6:                                                ; preds = %1
  %7 = load i64, ptr %2, align 8, !tbaa !31
  %8 = call i64 @rb_fix2int(i64 noundef %7)
  store i64 %8, ptr %3, align 8, !tbaa !31
  br label %12

9:                                                ; preds = %1
  %10 = load i64, ptr %2, align 8, !tbaa !31
  %11 = call i64 @rb_num2int(i64 noundef %10)
  store i64 %11, ptr %3, align 8, !tbaa !31
  br label %12

12:                                               ; preds = %9, %6
  %13 = load i64, ptr %3, align 8, !tbaa !31
  %14 = trunc i64 %13 to i32
  call void @llvm.lifetime.end.p0(i64 8, ptr %3) #24
  ret i32 %14
}

; Function Attrs: inlinehint nounwind sspstrong willreturn memory(none) uwtable
define internal zeroext i1 @RB_NIL_P(i64 noundef %0) #6 {
  %2 = alloca i64, align 8
  store i64 %0, ptr %2, align 8, !tbaa !31
  %3 = load i64, ptr %2, align 8, !tbaa !31
  %4 = icmp eq i64 %3, 4
  ret i1 %4
}

; Function Attrs: alwaysinline nounwind
define internal ptr @memset.inline(ptr nonnull %0, i32 %1, i64 %2) #12 {
  %4 = alloca ptr, align 8
  %5 = alloca i32, align 4
  %6 = alloca i64, align 8
  store ptr %0, ptr %4, align 8, !tbaa !26
  store i32 %1, ptr %5, align 4, !tbaa !27
  store i64 %2, ptr %6, align 8, !tbaa !31
  %7 = load ptr, ptr %4, align 8, !tbaa !26
  %8 = load i32, ptr %5, align 4, !tbaa !27
  %9 = load i64, ptr %6, align 8, !tbaa !31
  %10 = load ptr, ptr %4, align 8, !tbaa !26
  %11 = call i64 @llvm.objectsize.i64.p0(ptr %10, i1 false, i1 true, i1 false)
  %12 = call ptr @__memset_chk(ptr noundef %7, i32 noundef %8, i64 noundef %9, i64 noundef %11) #24
  ret ptr %12
}

; Function Attrs: inlinehint nounwind sspstrong uwtable
define internal i64 @rbimpl_size_mul_or_raise(i64 noundef %0, i64 noundef %1) #5 {
  %3 = alloca i64, align 8
  %4 = alloca i64, align 8
  %5 = alloca %struct.rbimpl_size_mul_overflow_tag, align 8
  store i64 %0, ptr %3, align 8, !tbaa !31
  store i64 %1, ptr %4, align 8, !tbaa !31
  call void @llvm.lifetime.start.p0(i64 16, ptr %5) #24
  %6 = load i64, ptr %3, align 8, !tbaa !31
  %7 = load i64, ptr %4, align 8, !tbaa !31
  %8 = call { i8, i64 } @rbimpl_size_mul_overflow(i64 noundef %6, i64 noundef %7) #28
  %9 = getelementptr inbounds nuw { i8, i64 }, ptr %5, i32 0, i32 0
  %10 = extractvalue { i8, i64 } %8, 0
  store i8 %10, ptr %9, align 8
  %11 = getelementptr inbounds nuw { i8, i64 }, ptr %5, i32 0, i32 1
  %12 = extractvalue { i8, i64 } %8, 1
  store i64 %12, ptr %11, align 8
  %13 = getelementptr inbounds nuw %struct.rbimpl_size_mul_overflow_tag, ptr %5, i32 0, i32 0
  %14 = load i8, ptr %13, align 8, !tbaa !98, !range !101, !noundef !102
  %15 = trunc i8 %14 to i1
  %16 = xor i1 %15, true
  %17 = xor i1 %16, true
  %18 = xor i1 %17, true
  %19 = zext i1 %18 to i32
  %20 = sext i32 %19 to i64
  %21 = call i64 @llvm.expect.i64(i64 %20, i64 1)
  %22 = icmp ne i64 %21, 0
  br i1 %22, label %23, label %26

23:                                               ; preds = %2
  %24 = getelementptr inbounds nuw %struct.rbimpl_size_mul_overflow_tag, ptr %5, i32 0, i32 1
  %25 = load i64, ptr %24, align 8, !tbaa !103
  call void @llvm.lifetime.end.p0(i64 16, ptr %5) #24
  ret i64 %25

26:                                               ; preds = %2
  %27 = load i64, ptr %3, align 8, !tbaa !31
  %28 = load i64, ptr %4, align 8, !tbaa !31
  call void @ruby_malloc_size_overflow(i64 noundef %27, i64 noundef %28) #27
  unreachable
}

; Function Attrs: nounwind sspstrong uwtable
define internal ptr @call_getaddrinfo(i64 noundef %0, i64 noundef %1, i64 noundef %2, i64 noundef %3, i64 noundef %4, i64 noundef %5, i32 noundef %6, i64 noundef %7) #0 {
  %9 = alloca i64, align 8
  %10 = alloca i64, align 8
  %11 = alloca i64, align 8
  %12 = alloca i64, align 8
  %13 = alloca i64, align 8
  %14 = alloca i64, align 8
  %15 = alloca i32, align 4
  %16 = alloca i64, align 8
  %17 = alloca %struct.addrinfo, align 8
  %18 = alloca ptr, align 8
  store i64 %0, ptr %9, align 8, !tbaa !31
  store i64 %1, ptr %10, align 8, !tbaa !31
  store i64 %2, ptr %11, align 8, !tbaa !31
  store i64 %3, ptr %12, align 8, !tbaa !31
  store i64 %4, ptr %13, align 8, !tbaa !31
  store i64 %5, ptr %14, align 8, !tbaa !31
  store i32 %6, ptr %15, align 4, !tbaa !27
  store i64 %7, ptr %16, align 8, !tbaa !31
  call void @llvm.lifetime.start.p0(i64 48, ptr %17) #24
  call void @llvm.lifetime.start.p0(i64 8, ptr %18) #24
  %19 = call i64 @rbimpl_size_mul_or_raise(i64 noundef 48, i64 noundef 1)
  %20 = call ptr @memset.inline(ptr noundef %17, i32 noundef 0, i64 noundef %19) #24
  %21 = load i64, ptr %11, align 8, !tbaa !31
  %22 = call zeroext i1 @RB_NIL_P(i64 noundef %21) #28
  br i1 %22, label %23, label %24

23:                                               ; preds = %8
  br label %27

24:                                               ; preds = %8
  %25 = load i64, ptr %11, align 8, !tbaa !31
  %26 = call i32 @rsock_family_arg(i64 noundef %25)
  br label %27

27:                                               ; preds = %24, %23
  %28 = phi i32 [ 0, %23 ], [ %26, %24 ]
  %29 = getelementptr inbounds nuw %struct.addrinfo, ptr %17, i32 0, i32 1
  store i32 %28, ptr %29, align 4, !tbaa !67
  %30 = load i64, ptr %12, align 8, !tbaa !31
  %31 = call zeroext i1 @RB_NIL_P(i64 noundef %30) #28
  br i1 %31, label %36, label %32

32:                                               ; preds = %27
  %33 = load i64, ptr %12, align 8, !tbaa !31
  %34 = call i32 @rsock_socktype_arg(i64 noundef %33)
  %35 = getelementptr inbounds nuw %struct.addrinfo, ptr %17, i32 0, i32 2
  store i32 %34, ptr %35, align 8, !tbaa !63
  br label %36

36:                                               ; preds = %32, %27
  %37 = load i64, ptr %13, align 8, !tbaa !31
  %38 = call zeroext i1 @RB_NIL_P(i64 noundef %37) #28
  br i1 %38, label %43, label %39

39:                                               ; preds = %36
  %40 = load i64, ptr %13, align 8, !tbaa !31
  %41 = call i32 @rb_num2int_inline(i64 noundef %40)
  %42 = getelementptr inbounds nuw %struct.addrinfo, ptr %17, i32 0, i32 3
  store i32 %41, ptr %42, align 4, !tbaa !68
  br label %43

43:                                               ; preds = %39, %36
  %44 = load i64, ptr %14, align 8, !tbaa !31
  %45 = call zeroext i1 @RB_NIL_P(i64 noundef %44) #28
  br i1 %45, label %50, label %46

46:                                               ; preds = %43
  %47 = load i64, ptr %14, align 8, !tbaa !31
  %48 = call i32 @rb_num2int_inline(i64 noundef %47)
  %49 = getelementptr inbounds nuw %struct.addrinfo, ptr %17, i32 0, i32 0
  store i32 %48, ptr %49, align 8, !tbaa !64
  br label %50

50:                                               ; preds = %46, %43
  %51 = load i64, ptr %9, align 8, !tbaa !31
  %52 = load i64, ptr %10, align 8, !tbaa !31
  %53 = load i32, ptr %15, align 4, !tbaa !27
  %54 = call ptr @rsock_getaddrinfo(i64 noundef %51, i64 noundef %52, ptr noundef %17, i32 noundef %53)
  store ptr %54, ptr %18, align 8, !tbaa !6
  %55 = load ptr, ptr %18, align 8, !tbaa !6
  %56 = icmp eq ptr %55, null
  br i1 %56, label %57, label %59

57:                                               ; preds = %50
  %58 = load i64, ptr @rb_eSocket, align 8, !tbaa !31
  call void (i64, ptr, ...) @rb_raise(i64 noundef %58, ptr noundef @.str.107) #27
  unreachable

59:                                               ; preds = %50
  %60 = load ptr, ptr %18, align 8, !tbaa !6
  call void @llvm.lifetime.end.p0(i64 8, ptr %18) #24
  call void @llvm.lifetime.end.p0(i64 48, ptr %17) #24
  ret ptr %60
}