; Function Attrs: nounwind sspstrong uwtable
define internal fastcc noalias noundef nonnull ptr @call_getaddrinfo(i64 noundef %0, i64 noundef %1, i64 noundef %2, i64 noundef %3, i64 noundef %4, i64 noundef %5, i32 noundef range(i32 0, 2) %6) unnamed_addr #0 {
  %8 = alloca %struct.addrinfo, align 8
  call void @llvm.lifetime.start.p0(i64 48, ptr nonnull %8) #21
  call void @llvm.memset.p0.i64(ptr noundef nonnull align 8 dereferenceable(48) %8, i8 noundef 0, i64 noundef 48, i1 noundef false) #21
  %9 = icmp eq i64 %2, 4
  br i1 %9, label %12, label %10

10:                                               ; preds = %7
  %11 = tail call i32 @rsock_family_arg(i64 noundef %2) #21
  br label %12

12:                                               ; preds = %7, %10
  %13 = phi i32 [ %11, %10 ], [ 0, %7 ]
  %14 = getelementptr inbounds nuw i8, ptr %8, i64 4
  store i32 %13, ptr %14, align 4, !tbaa !77
  %15 = icmp eq i64 %3, 4
  br i1 %15, label %19, label %16

16:                                               ; preds = %12
  %17 = tail call i32 @rsock_socktype_arg(i64 noundef %3) #21
  %18 = getelementptr inbounds nuw i8, ptr %8, i64 8
  store i32 %17, ptr %18, align 8, !tbaa !60
  br label %19

19:                                               ; preds = %16, %12
  %20 = icmp eq i64 %4, 4
  br i1 %20, label %29, label %21

21:                                               ; preds = %19
  %22 = and i64 %4, 1
  %.not.i = icmp eq i64 %22, 0
  br i1 %.not.i, label %25, label %23

23:                                               ; preds = %21
  %24 = tail call i64 @rb_fix2int(i64 noundef %4) #21
  br label %rb_num2int_inline.exit

25:                                               ; preds = %21
  %26 = tail call i64 @rb_num2int(i64 noundef %4) #21
  br label %rb_num2int_inline.exit

rb_num2int_inline.exit:                           ; preds = %23, %25
  %.0.i = phi i64 [ %24, %23 ], [ %26, %25 ]
  %27 = trunc i64 %.0.i to i32
  %28 = getelementptr inbounds nuw i8, ptr %8, i64 12
  store i32 %27, ptr %28, align 4, !tbaa !78
  br label %29

29:                                               ; preds = %rb_num2int_inline.exit, %19
  %30 = icmp eq i64 %5, 4
  br i1 %30, label %38, label %31

31:                                               ; preds = %29
  %32 = and i64 %5, 1
  %.not.i12 = icmp eq i64 %32, 0
  br i1 %.not.i12, label %35, label %33

33:                                               ; preds = %31
  %34 = tail call i64 @rb_fix2int(i64 noundef %5) #21
  br label %rb_num2int_inline.exit14

35:                                               ; preds = %31
  %36 = tail call i64 @rb_num2int(i64 noundef %5) #21
  br label %rb_num2int_inline.exit14

rb_num2int_inline.exit14:                         ; preds = %33, %35
  %.0.i13 = phi i64 [ %34, %33 ], [ %36, %35 ]
  %37 = trunc i64 %.0.i13 to i32
  store i32 %37, ptr %8, align 8, !tbaa !62
  br label %38

38:                                               ; preds = %29, %rb_num2int_inline.exit14
  %39 = call ptr @rsock_getaddrinfo(i64 noundef %0, i64 noundef %1, ptr noundef nonnull %8, i32 noundef %6)
  call void @llvm.lifetime.end.p0(i64 48, ptr nonnull %8) #21
  ret ptr %39
}